#include <math.h>
#include <stdio.h>
#include <stdlib.h>
#include <string.h>

main()
{
      int n;
      scanf("%d",&n);getchar();
      for(;n>0;n--)
      {
      int i=0;
         char str[88];
       for(i=0;i<88;i++)
       {
           str[i]='a';
       }  
       gets(str);
       //scanf("%s",str);
       
       for(i=0;i<strlen(str);i++)
       {
             if((!isalnum(str[i]))&&str[i]!='_')
             {
                 printf("%d\n",0);
                 goto hhh;
             }                    
       }
         //printf("%c",str[0]);
        //char a=str[0]; 
        //if((str[0]<="z"&&str[0]>="a")||(str[0]<="Z"&&str[0]>="A")||str[0]=="_")
        if(isalpha(str[0])||str[0]=='_')
            {
                printf("%d\n",1);
            }          
         else
            {
                printf("%d\n",0);
            }   hhh:;
      }/*getchar();getchar();getchar();getchar();getchar();getchar();
      getchar();getchar();getchar();getchar();getchar();getchar();getchar();
      getchar();getchar();getchar();getchar();getchar();getchar();getchar();
      getchar();getchar();getchar();getchar();getchar();getchar();getchar();
      getchar();getchar();getchar();getchar();getchar();getchar();getchar();
      getchar();getchar();getchar();getchar();getchar();getchar();getchar();
      getchar();getchar();getchar();getchar();getchar();getchar();getchar();
      getchar();getchar();getchar();getchar();getchar();getchar();getchar(); */
}
