; ModuleID = '58/152.c'
source_filename = "58/152.c"
target datalayout = "e-m:e-p270:32:32-p271:32:32-p272:64:64-i64:64-f80:128-n8:16:32:64-S128"
target triple = "x86_64-pc-linux-gnu"

@.str = private unnamed_addr constant [3 x i8] c"%d\00", align 1
@.str.1 = private unnamed_addr constant [4 x i8] c"%d\0A\00", align 1

; Function Attrs: noinline nounwind uwtable
define dso_local i32 @main() #0 {
  %1 = alloca i32, align 4
  %2 = alloca i32, align 4
  %3 = alloca i32, align 4
  %4 = alloca [88 x i8], align 16
  store i32 0, i32* %1, align 4
  %5 = call i32 (i8*, ...) @__isoc99_scanf(i8* getelementptr inbounds ([3 x i8], [3 x i8]* @.str, i64 0, i64 0), i32* %2)
  %6 = call i32 @getchar()
  br label %7

7:                                                ; preds = %68, %0
  %8 = load i32, i32* %2, align 4
  %9 = icmp sgt i32 %8, 0
  br i1 %9, label %10, label %71

10:                                               ; preds = %7
  store i32 0, i32* %3, align 4
  store i32 0, i32* %3, align 4
  br label %11

11:                                               ; preds = %18, %10
  %12 = load i32, i32* %3, align 4
  %13 = icmp slt i32 %12, 88
  br i1 %13, label %14, label %21

14:                                               ; preds = %11
  %15 = load i32, i32* %3, align 4
  %16 = sext i32 %15 to i64
  %17 = getelementptr inbounds [88 x i8], [88 x i8]* %4, i64 0, i64 %16
  store i8 97, i8* %17, align 1
  br label %18

18:                                               ; preds = %14
  %19 = load i32, i32* %3, align 4
  %20 = add nsw i32 %19, 1
  store i32 %20, i32* %3, align 4
  br label %11

21:                                               ; preds = %11
  %22 = getelementptr inbounds [88 x i8], [88 x i8]* %4, i64 0, i64 0
  %23 = call i32 (i8*, ...) bitcast (i32 (...)* @gets to i32 (i8*, ...)*)(i8* %22)
  store i32 0, i32* %3, align 4
  br label %24

24:                                               ; preds = %48, %21
  %25 = load i32, i32* %3, align 4
  %26 = sext i32 %25 to i64
  %27 = getelementptr inbounds [88 x i8], [88 x i8]* %4, i64 0, i64 0
  %28 = call i64 @strlen(i8* %27) #3
  %29 = icmp ult i64 %26, %28
  br i1 %29, label %30, label %51

30:                                               ; preds = %24
  %31 = load i32, i32* %3, align 4
  %32 = sext i32 %31 to i64
  %33 = getelementptr inbounds [88 x i8], [88 x i8]* %4, i64 0, i64 %32
  %34 = load i8, i8* %33, align 1
  %35 = sext i8 %34 to i32
  %36 = call i32 @isalnum(i32 %35) #3
  %37 = icmp ne i32 %36, 0
  br i1 %37, label %47, label %38

38:                                               ; preds = %30
  %39 = load i32, i32* %3, align 4
  %40 = sext i32 %39 to i64
  %41 = getelementptr inbounds [88 x i8], [88 x i8]* %4, i64 0, i64 %40
  %42 = load i8, i8* %41, align 1
  %43 = sext i8 %42 to i32
  %44 = icmp ne i32 %43, 95
  br i1 %44, label %45, label %47

45:                                               ; preds = %38
  %46 = call i32 (i8*, ...) @printf(i8* getelementptr inbounds ([4 x i8], [4 x i8]* @.str.1, i64 0, i64 0), i32 0)
  br label %67

47:                                               ; preds = %38, %30
  br label %48

48:                                               ; preds = %47
  %49 = load i32, i32* %3, align 4
  %50 = add nsw i32 %49, 1
  store i32 %50, i32* %3, align 4
  br label %24

51:                                               ; preds = %24
  %52 = getelementptr inbounds [88 x i8], [88 x i8]* %4, i64 0, i64 0
  %53 = load i8, i8* %52, align 16
  %54 = sext i8 %53 to i32
  %55 = call i32 @isalpha(i32 %54) #3
  %56 = icmp ne i32 %55, 0
  br i1 %56, label %62, label %57

57:                                               ; preds = %51
  %58 = getelementptr inbounds [88 x i8], [88 x i8]* %4, i64 0, i64 0
  %59 = load i8, i8* %58, align 16
  %60 = sext i8 %59 to i32
  %61 = icmp eq i32 %60, 95
  br i1 %61, label %62, label %64

62:                                               ; preds = %57, %51
  %63 = call i32 (i8*, ...) @printf(i8* getelementptr inbounds ([4 x i8], [4 x i8]* @.str.1, i64 0, i64 0), i32 1)
  br label %66

64:                                               ; preds = %57
  %65 = call i32 (i8*, ...) @printf(i8* getelementptr inbounds ([4 x i8], [4 x i8]* @.str.1, i64 0, i64 0), i32 0)
  br label %66

66:                                               ; preds = %64, %62
  br label %67

67:                                               ; preds = %66, %45
  br label %68

68:                                               ; preds = %67
  %69 = load i32, i32* %2, align 4
  %70 = add nsw i32 %69, -1
  store i32 %70, i32* %2, align 4
  br label %7

71:                                               ; preds = %7
  %72 = load i32, i32* %1, align 4
  ret i32 %72
}

declare dso_local i32 @__isoc99_scanf(i8*, ...) #1

declare dso_local i32 @getchar() #1

declare dso_local i32 @gets(...) #1

; Function Attrs: nounwind readonly
declare dso_local i64 @strlen(i8*) #2

; Function Attrs: nounwind readonly
declare dso_local i32 @isalnum(i32) #2

declare dso_local i32 @printf(i8*, ...) #1

; Function Attrs: nounwind readonly
declare dso_local i32 @isalpha(i32) #2


!llvm.module.flags = !{!0}
!llvm.ident = !{!1}

!0 = !{i32 1, !"wchar_size", i32 4}
!1 = !{!"clang version 10.0.0-4ubuntu1 "}
