; ModuleID = 'source-C-CXX/57/152.c'
source_filename = "source-C-CXX/57/152.c"
target datalayout = "e-m:e-p270:32:32-p271:32:32-p272:64:64-i64:64-f80:128-n8:16:32:64-S128"
target triple = "x86_64-pc-linux-gnu"

%struct._IO_FILE = type { i32, i8*, i8*, i8*, i8*, i8*, i8*, i8*, i8*, i8*, i8*, i8*, %struct._IO_marker*, %struct._IO_FILE*, i32, i32, i64, i16, i8, [1 x i8], i8*, i64, %struct._IO_codecvt*, %struct._IO_wide_data*, %struct._IO_FILE*, i8*, i64, i32, [20 x i8] }
%struct._IO_marker = type opaque
%struct._IO_codecvt = type opaque
%struct._IO_wide_data = type opaque

@.str = private unnamed_addr constant [3 x i8] c"%d\00", align 1
@.str.1 = private unnamed_addr constant [4 x i8] c"%d\0A\00", align 1
@stdin = external local_unnamed_addr global %struct._IO_FILE*, align 8

; Function Attrs: nounwind sspstrong uwtable
define dso_local i32 @main() local_unnamed_addr #0 {
  %1 = alloca i32, align 4
  %2 = alloca [88 x i8], align 16
  %3 = getelementptr inbounds [88 x i8], [88 x i8]* %2, i64 0, i64 0
  %4 = bitcast i32* %1 to i8*
  call void @llvm.lifetime.start.p0i8(i64 4, i8* nonnull %4) #7
  %5 = call i32 (i8*, ...) @__isoc99_scanf(i8* getelementptr inbounds ([3 x i8], [3 x i8]* @.str, i64 0, i64 0), i32* nonnull %1)
  %6 = load %struct._IO_FILE*, %struct._IO_FILE** @stdin, align 8, !tbaa !5
  %7 = call i32 @getc(%struct._IO_FILE* %6) #7
  %8 = load i32, i32* %1, align 4, !tbaa !9
  %9 = getelementptr inbounds [88 x i8], [88 x i8]* %2, i64 0, i64 0
  %10 = icmp sgt i32 %8, 0
  br i1 %10, label %11, label %41

11:                                               ; preds = %0, %35
  call void @llvm.lifetime.start.p0i8(i64 88, i8* nonnull %9) #7
  call void @llvm.memset.p0i8.i64(i8* noundef nonnull align 16 dereferenceable(88) %3, i8 97, i64 88, i1 false)
  %12 = call i32 (i8*, ...) bitcast (i32 (...)* @gets to i32 (i8*, ...)*)(i8* nonnull %9) #7
  %13 = call i64 @strlen(i8* noundef nonnull %9) #8
  %14 = icmp eq i64 %13, 0
  br i1 %14, label %27, label %17

15:                                               ; preds = %17
  %16 = icmp eq i64 %26, %13
  br i1 %16, label %27, label %17, !llvm.loop !11

17:                                               ; preds = %11, %15
  %18 = phi i64 [ %26, %15 ], [ 0, %11 ]
  %19 = getelementptr inbounds [88 x i8], [88 x i8]* %2, i64 0, i64 %18
  %20 = load i8, i8* %19, align 1, !tbaa !13
  %21 = sext i8 %20 to i32
  %22 = call i32 @isalnum(i32 %21) #8
  %23 = icmp ne i32 %22, 0
  %24 = icmp eq i8 %20, 95
  %25 = select i1 %23, i1 true, i1 %24
  %26 = add nuw i64 %18, 1
  br i1 %25, label %15, label %35

27:                                               ; preds = %15, %11
  %28 = load i8, i8* %9, align 16, !tbaa !13
  %29 = sext i8 %28 to i32
  %30 = call i32 @isalpha(i32 %29) #8
  %31 = icmp ne i32 %30, 0
  %32 = icmp eq i8 %28, 95
  %33 = select i1 %31, i1 true, i1 %32
  %34 = zext i1 %33 to i32
  br label %35

35:                                               ; preds = %17, %27
  %36 = phi i32 [ %34, %27 ], [ 0, %17 ]
  %37 = call i32 (i8*, ...) @printf(i8* nonnull dereferenceable(1) getelementptr inbounds ([4 x i8], [4 x i8]* @.str.1, i64 0, i64 0), i32 %36)
  call void @llvm.lifetime.end.p0i8(i64 88, i8* nonnull %9) #7
  %38 = load i32, i32* %1, align 4, !tbaa !9
  %39 = add nsw i32 %38, -1
  store i32 %39, i32* %1, align 4, !tbaa !9
  %40 = icmp sgt i32 %38, 1
  br i1 %40, label %11, label %41, !llvm.loop !14

41:                                               ; preds = %35, %0
  call void @llvm.lifetime.end.p0i8(i64 4, i8* nonnull %4) #7
  ret i32 0
}

; Function Attrs: argmemonly mustprogress nofree nosync nounwind willreturn
declare void @llvm.lifetime.start.p0i8(i64 immarg, i8* nocapture) #1

; Function Attrs: nofree nounwind
declare noundef i32 @__isoc99_scanf(i8* nocapture noundef readonly, ...) local_unnamed_addr #2

declare i32 @gets(...) local_unnamed_addr #3

; Function Attrs: argmemonly mustprogress nofree nounwind readonly willreturn
declare i64 @strlen(i8* nocapture) local_unnamed_addr #4

; Function Attrs: mustprogress nofree nounwind readonly willreturn
declare i32 @isalnum(i32) local_unnamed_addr #5

; Function Attrs: nofree nounwind
declare noundef i32 @printf(i8* nocapture noundef readonly, ...) local_unnamed_addr #2

; Function Attrs: mustprogress nofree nounwind readonly willreturn
declare i32 @isalpha(i32) local_unnamed_addr #5

; Function Attrs: argmemonly mustprogress nofree nosync nounwind willreturn
declare void @llvm.lifetime.end.p0i8(i64 immarg, i8* nocapture) #1

; Function Attrs: nofree nounwind
declare noundef i32 @getc(%struct._IO_FILE* nocapture noundef) local_unnamed_addr #2

; Function Attrs: argmemonly nofree nounwind willreturn writeonly
declare void @llvm.memset.p0i8.i64(i8* nocapture writeonly, i8, i64, i1 immarg) #6


!llvm.module.flags = !{!0, !1, !2, !3}
!llvm.ident = !{!4}

!0 = !{i32 1, !"wchar_size", i32 4}
!1 = !{i32 7, !"PIC Level", i32 2}
!2 = !{i32 7, !"PIE Level", i32 2}
!3 = !{i32 7, !"uwtable", i32 1}
!4 = !{!"clang version 13.0.0"}
!5 = !{!6, !6, i64 0}
!6 = !{!"any pointer", !7, i64 0}
!7 = !{!"omnipotent char", !8, i64 0}
!8 = !{!"Simple C/C++ TBAA"}
!9 = !{!10, !10, i64 0}
!10 = !{!"int", !7, i64 0}
!11 = distinct !{!11, !12}
!12 = !{!"llvm.loop.mustprogress"}
!13 = !{!7, !7, i64 0}
!14 = distinct !{!14, !12}
